; Function Attrs: nounwind uwtable
define internal void @rdlock_thread(ptr noundef %0) #0 {
  %2 = getelementptr inbounds nuw i8, ptr %0, i64 8
  tail call void @_PyRWMutex_RLock(ptr noundef nonnull %2) #6
  %3 = getelementptr inbounds nuw i8, ptr %0, i64 16
  tail call void @PyEvent_Wait(ptr noundef nonnull %3) #6
  tail call void @_PyRWMutex_RUnlock(ptr noundef nonnull %2) #6
  tail call void @_PyRWMutex_RLock(ptr noundef nonnull %2) #6
  %4 = getelementptr inbounds nuw i8, ptr %0, i64 18
  tail call void @PyEvent_Wait(ptr noundef nonnull %4) #6
  tail call void @_PyRWMutex_RUnlock(ptr noundef nonnull %2) #6
  %5 = atomicrmw add ptr %0, i64 -1 seq_cst, align 8
  %6 = icmp eq i64 %5, 1
  br i1 %6, label %7, label %9

7:                                                ; preds = %1
  %8 = getelementptr inbounds nuw i8, ptr %0, i64 19
  tail call void @_PyEvent_Notify(ptr noundef nonnull %8) #6
  br label %9

9:                                                ; preds = %7, %1
  ret void
}